target datalayout = "e-m:e-p270:32:32-p271:32:32-p272:64:64-i64:64-i128:128-f80:128-n8:16:32:64-S128"
target triple = "x86_64-pc-linux-gnu"

%class.QStyleOption = type { i32, i32, %class.QFlags, i32, %class.QRect, %class.QFontMetrics, %class.QPalette, ptr }
%class.QFlags = type { i32 }
%class.QRect = type { i32, i32, i32, i32 }
%class.QFontMetrics = type { %class.QExplicitlySharedDataPointer }
%class.QExplicitlySharedDataPointer = type { ptr }
%class.QPalette = type <{ ptr, i32, [4 x i8] }>
%class.QSize = type { i32, i32 }

; Function Attrs: inlinehint mustprogress nounwind null_pointer_is_valid sspstrong uwtable
define linkonce_odr void @_ZN5QSizeC2Eii(ptr noundef align 4 dereferenceable_or_null(8) %0, i32 noundef %1, i32 noundef %2) unnamed_addr #5 comdat align 2 {
  %4 = alloca ptr, align 8
  %5 = alloca i32, align 4
  %6 = alloca i32, align 4
  store ptr %0, ptr %4, align 8
  store i32 %1, ptr %5, align 4
  store i32 %2, ptr %6, align 4
  %7 = load ptr, ptr %4, align 8
  %8 = getelementptr inbounds nuw %class.QSize, ptr %7, i32 0, i32 0
  %9 = load i32, ptr %5, align 4
  store i32 %9, ptr %8, align 4
  %10 = getelementptr inbounds nuw %class.QSize, ptr %7, i32 0, i32 1
  %11 = load i32, ptr %6, align 4
  store i32 %11, ptr %10, align 4
  ret void
}

; Function Attrs: inlinehint mustprogress nounwind null_pointer_is_valid sspstrong uwtable
define linkonce_odr noundef i32 @_ZNK5QSize6heightEv(ptr noundef align 4 dereferenceable_or_null(8) %0) #5 comdat align 2 {
  %2 = alloca ptr, align 8
  store ptr %0, ptr %2, align 8
  %3 = load ptr, ptr %2, align 8
  %4 = getelementptr inbounds nuw %class.QSize, ptr %3, i32 0, i32 1
  %5 = load i32, ptr %4, align 4
  ret i32 %5
}

; Function Attrs: mustprogress null_pointer_is_valid sspstrong uwtable
define i64 @_ZNK17SparkLineDelegate8sizeHintERK20QStyleOptionViewItemRK11QModelIndex(ptr noundef align 8 dereferenceable_or_null(16) %0, ptr noundef align 8 dereferenceable(208) %1, ptr noundef align 8 dereferenceable(24) %2) unnamed_addr #0 align 2 {
  %4 = alloca %class.QSize, align 4
  %5 = alloca ptr, align 8
  %6 = alloca ptr, align 8
  %7 = alloca ptr, align 8
  %8 = alloca %class.QSize, align 4
  store ptr %0, ptr %5, align 8
  store ptr %1, ptr %6, align 8
  store ptr %2, ptr %7, align 8
  %9 = load ptr, ptr %5, align 8
  %10 = load ptr, ptr %6, align 8
  %11 = getelementptr inbounds nuw %class.QStyleOption, ptr %10, i32 0, i32 5
  %12 = call noundef i32 @_ZNK12QFontMetrics6heightEv(ptr noundef align 8 dereferenceable_or_null(8) %11)
  %13 = mul i32 %12, 10
  call void @llvm.lifetime.start.p0(i64 8, ptr %8) #21
  %14 = load ptr, ptr %6, align 8
  %15 = load ptr, ptr %7, align 8
  %16 = call i64 @_ZNK19QStyledItemDelegate8sizeHintERK20QStyleOptionViewItemRK11QModelIndex(ptr noundef align 8 dereferenceable_or_null(16) %9, ptr noundef align 8 dereferenceable(208) %14, ptr noundef align 8 dereferenceable(24) %15)
  store i64 %16, ptr %8, align 4
  %17 = call noundef i32 @_ZNK5QSize6heightEv(ptr noundef align 4 dereferenceable_or_null(8) %8) #21
  call void @_ZN5QSizeC2Eii(ptr noundef align 4 dereferenceable_or_null(8) %4, i32 noundef %13, i32 noundef %17) #21
  call void @llvm.lifetime.end.p0(i64 8, ptr %8) #21
  %18 = load i64, ptr %4, align 4
  ret i64 %18
}