; Function Attrs: mustprogress null_pointer_is_valid sspstrong uwtable
define i64 @_ZNK17SparkLineDelegate8sizeHintERK20QStyleOptionViewItemRK11QModelIndex(ptr noundef align 8 dereferenceable_or_null(16) %0, ptr noundef align 8 dereferenceable(208) %1, ptr noundef align 8 dereferenceable(24) %2) unnamed_addr #0 align 2 {
  %4 = getelementptr inbounds nuw i8, ptr %1, i64 32
  %5 = tail call noundef i32 @_ZNK12QFontMetrics6heightEv(ptr noundef nonnull align 8 dereferenceable_or_null(8) %4)
  %6 = mul i32 %5, 10
  %7 = tail call i64 @_ZNK19QStyledItemDelegate8sizeHintERK20QStyleOptionViewItemRK11QModelIndex(ptr noundef align 8 dereferenceable_or_null(16) %0, ptr noundef align 8 dereferenceable(208) %1, ptr noundef align 8 dereferenceable(24) %2)
  %.sroa.3.0.extract.shift = and i64 %7, -4294967296
  %.sroa.04.0.insert.ext = zext i32 %6 to i64
  %.sroa.04.0.insert.insert = or disjoint i64 %.sroa.3.0.extract.shift, %.sroa.04.0.insert.ext
  ret i64 %.sroa.04.0.insert.insert
}